target datalayout = "e-m:e-p270:32:32-p271:32:32-p272:64:64-i64:64-i128:128-f80:128-n8:16:32:64-S128"
target triple = "x86_64-pc-linux-gnu"

%class.Statement = type { ptr, i32, i32, ptr, ptr }
%class.StatementContinue = type { %class.Statement, ptr, ptr }

; Function Attrs: mustprogress uwtable
define dso_local void @_ZN17StatementContinueC2EP5BlockRK10ExpressionRKS0_(ptr noundef nonnull align 8 dereferenceable(48) %0, ptr noundef %1, ptr noundef nonnull align 8 dereferenceable(24) %2, ptr noundef nonnull align 8 dereferenceable(192) %3) unnamed_addr #4 align 2 {
  %5 = alloca ptr, align 8
  %6 = alloca ptr, align 8
  %7 = alloca ptr, align 8
  %8 = alloca ptr, align 8
  store ptr %0, ptr %5, align 8
  store ptr %1, ptr %6, align 8
  store ptr %2, ptr %7, align 8
  store ptr %3, ptr %8, align 8
  %9 = load ptr, ptr %5, align 8
  %10 = load ptr, ptr %6, align 8
  call void @_ZN9StatementC2E14eStatementTypeP5Block(ptr noundef nonnull align 8 dereferenceable(32) %9, i32 noundef 6, ptr noundef %10)
  store ptr getelementptr inbounds ({ [12 x ptr] }, ptr @_ZTV17StatementContinue, i32 0, i32 0, i32 2), ptr %9, align 8
  %11 = getelementptr inbounds %class.StatementContinue, ptr %9, i32 0, i32 1
  %12 = load ptr, ptr %7, align 8
  store ptr %12, ptr %11, align 8
  %13 = getelementptr inbounds %class.StatementContinue, ptr %9, i32 0, i32 2
  %14 = load ptr, ptr %8, align 8
  store ptr %14, ptr %13, align 8
  ret void
}